; ModuleID = '12/573.c'
source_filename = "12/573.c"
target datalayout = "e-m:e-p270:32:32-p271:32:32-p272:64:64-i64:64-f80:128-n8:16:32:64-S128"
target triple = "x86_64-pc-linux-gnu"

@.str = private unnamed_addr constant [3 x i8] c"%d\00", align 1
@.str.1 = private unnamed_addr constant [4 x i8] c"%d\0A\00", align 1

; Function Attrs: noinline nounwind uwtable
define dso_local i32 @main() #0 {
  %1 = alloca i32, align 4
  %2 = alloca [16 x i32], align 16
  %3 = alloca i32, align 4
  %4 = alloca i32, align 4
  %5 = alloca i32, align 4
  %6 = alloca i32, align 4
  store i32 0, i32* %1, align 4
  br label %7

7:                                                ; preds = %77, %0
  store i32 0, i32* %3, align 4
  br label %8

8:                                                ; preds = %15, %7
  %9 = load i32, i32* %3, align 4
  %10 = icmp sle i32 %9, 15
  br i1 %10, label %11, label %18

11:                                               ; preds = %8
  %12 = load i32, i32* %3, align 4
  %13 = sext i32 %12 to i64
  %14 = getelementptr inbounds [16 x i32], [16 x i32]* %2, i64 0, i64 %13
  store i32 0, i32* %14, align 4
  br label %15

15:                                               ; preds = %11
  %16 = load i32, i32* %3, align 4
  %17 = add nsw i32 %16, 1
  store i32 %17, i32* %3, align 4
  br label %8

18:                                               ; preds = %8
  store i32 0, i32* %3, align 4
  br label %19

19:                                               ; preds = %41, %18
  %20 = load i32, i32* %3, align 4
  %21 = icmp sle i32 %20, 15
  br i1 %21, label %22, label %44

22:                                               ; preds = %19
  %23 = load i32, i32* %3, align 4
  %24 = sext i32 %23 to i64
  %25 = getelementptr inbounds [16 x i32], [16 x i32]* %2, i64 0, i64 %24
  %26 = call i32 (i8*, ...) @__isoc99_scanf(i8* getelementptr inbounds ([3 x i8], [3 x i8]* @.str, i64 0, i64 0), i32* %25)
  %27 = load i32, i32* %3, align 4
  %28 = sext i32 %27 to i64
  %29 = getelementptr inbounds [16 x i32], [16 x i32]* %2, i64 0, i64 %28
  %30 = load i32, i32* %29, align 4
  %31 = icmp eq i32 %30, 0
  br i1 %31, label %32, label %33

32:                                               ; preds = %22
  br label %44

33:                                               ; preds = %22
  %34 = load i32, i32* %3, align 4
  %35 = sext i32 %34 to i64
  %36 = getelementptr inbounds [16 x i32], [16 x i32]* %2, i64 0, i64 %35
  %37 = load i32, i32* %36, align 4
  %38 = icmp eq i32 %37, -1
  br i1 %38, label %39, label %40

39:                                               ; preds = %33
  ret i32 0

40:                                               ; preds = %33
  br label %41

41:                                               ; preds = %40
  %42 = load i32, i32* %3, align 4
  %43 = add nsw i32 %42, 1
  store i32 %43, i32* %3, align 4
  br label %19

44:                                               ; preds = %32, %19
  %45 = load i32, i32* %3, align 4
  store i32 %45, i32* %6, align 4
  store i32 0, i32* %5, align 4
  store i32 0, i32* %3, align 4
  br label %46

46:                                               ; preds = %74, %44
  %47 = load i32, i32* %3, align 4
  %48 = load i32, i32* %6, align 4
  %49 = icmp slt i32 %47, %48
  br i1 %49, label %50, label %77

50:                                               ; preds = %46
  store i32 0, i32* %4, align 4
  br label %51

51:                                               ; preds = %70, %50
  %52 = load i32, i32* %4, align 4
  %53 = load i32, i32* %6, align 4
  %54 = icmp slt i32 %52, %53
  br i1 %54, label %55, label %73

55:                                               ; preds = %51
  %56 = load i32, i32* %4, align 4
  %57 = sext i32 %56 to i64
  %58 = getelementptr inbounds [16 x i32], [16 x i32]* %2, i64 0, i64 %57
  %59 = load i32, i32* %58, align 4
  %60 = load i32, i32* %3, align 4
  %61 = sext i32 %60 to i64
  %62 = getelementptr inbounds [16 x i32], [16 x i32]* %2, i64 0, i64 %61
  %63 = load i32, i32* %62, align 4
  %64 = mul nsw i32 2, %63
  %65 = icmp eq i32 %59, %64
  br i1 %65, label %66, label %69

66:                                               ; preds = %55
  %67 = load i32, i32* %5, align 4
  %68 = add nsw i32 %67, 1
  store i32 %68, i32* %5, align 4
  br label %69

69:                                               ; preds = %66, %55
  br label %70

70:                                               ; preds = %69
  %71 = load i32, i32* %4, align 4
  %72 = add nsw i32 %71, 1
  store i32 %72, i32* %4, align 4
  br label %51

73:                                               ; preds = %51
  br label %74

74:                                               ; preds = %73
  %75 = load i32, i32* %3, align 4
  %76 = add nsw i32 %75, 1
  store i32 %76, i32* %3, align 4
  br label %46

77:                                               ; preds = %46
  %78 = load i32, i32* %5, align 4
  %79 = call i32 (i8*, ...) @printf(i8* getelementptr inbounds ([4 x i8], [4 x i8]* @.str.1, i64 0, i64 0), i32 %78)
  br label %7
}

declare dso_local i32 @__isoc99_scanf(i8*, ...) #1

declare dso_local i32 @printf(i8*, ...) #1


!llvm.module.flags = !{!0}
!llvm.ident = !{!1}

!0 = !{i32 1, !"wchar_size", i32 4}
!1 = !{!"clang version 10.0.0-4ubuntu1 "}
